target datalayout = "e-m:e-p270:32:32-p271:32:32-p272:64:64-i64:64-i128:128-f80:128-n8:16:32:64-S128"
target triple = "x86_64-pc-linux-gnu"

%class.num_occurs = type { ptr, i8, i8, [6 x i8], %class.obj_map }
%class.obj_map = type { %class.core_hashtable }
%class.core_hashtable = type <{ ptr, i32, i32, i32, [4 x i8] }>
%class.ast = type { i32, i32, i32, i32 }
%"struct.obj_map<expr, unsigned int>::key_data" = type <{ ptr, i32, [4 x i8] }>
%"class.core_hashtable<obj_map<expr, unsigned int>::obj_map_entry, obj_hash<obj_map<expr, unsigned int>::key_data>, default_eq<obj_map<expr, unsigned int>::key_data>>::iterator" = type { ptr, ptr }
%"class.obj_map<expr, unsigned int>::obj_map_entry" = type { %"struct.obj_map<expr, unsigned int>::key_data" }

@.str = private unnamed_addr constant [106 x i8] c"generated/home/dtcxzyw/WorkSpace/Projects/compilers/llvm-opt-benchmark/bench/z3/z3/src/ast/num_occurs.cpp\00", align 1
@.str.1 = private unnamed_addr constant [49 x i8] c"Failed to verify: 0 < kv.m_key->get_ref_count()\0A\00", align 1

; Function Attrs: mustprogress nounwind uwtable
define linkonce_odr hidden noundef zeroext i1 @_ZNK7obj_mapI4exprjE13obj_map_entry7is_usedEv(ptr noundef nonnull align 8 dereferenceable(16) %0) #7 comdat align 2 {
  %2 = alloca ptr, align 8
  store ptr %0, ptr %2, align 8, !tbaa !81
  %3 = load ptr, ptr %2, align 8
  %4 = getelementptr inbounds nuw %"class.obj_map<expr, unsigned int>::obj_map_entry", ptr %3, i32 0, i32 0
  %5 = getelementptr inbounds nuw %"struct.obj_map<expr, unsigned int>::key_data", ptr %4, i32 0, i32 0
  %6 = load ptr, ptr %5, align 8, !tbaa !92
  %7 = icmp ne ptr %6, null
  br i1 %7, label %8, label %13

8:                                                ; preds = %1
  %9 = getelementptr inbounds nuw %"class.obj_map<expr, unsigned int>::obj_map_entry", ptr %3, i32 0, i32 0
  %10 = getelementptr inbounds nuw %"struct.obj_map<expr, unsigned int>::key_data", ptr %9, i32 0, i32 0
  %11 = load ptr, ptr %10, align 8, !tbaa !92
  %12 = icmp ne ptr %11, inttoptr (i64 1 to ptr)
  br label %13

13:                                               ; preds = %8, %1
  %14 = phi i1 [ false, %1 ], [ %12, %8 ]
  ret i1 %14
}

; Function Attrs: mustprogress uwtable
define linkonce_odr hidden void @_ZN14core_hashtableIN7obj_mapI4exprjE13obj_map_entryE8obj_hashINS2_8key_dataEE10default_eqIS5_EE8iteratorC2EPS3_SB_(ptr noundef nonnull align 8 dereferenceable(16) %0, ptr noundef %1, ptr noundef %2) unnamed_addr #4 comdat align 2 {
  %4 = alloca ptr, align 8
  %5 = alloca ptr, align 8
  %6 = alloca ptr, align 8
  store ptr %0, ptr %4, align 8, !tbaa !65
  store ptr %1, ptr %5, align 8, !tbaa !81
  store ptr %2, ptr %6, align 8, !tbaa !81
  %7 = load ptr, ptr %4, align 8
  %8 = getelementptr inbounds nuw %"class.core_hashtable<obj_map<expr, unsigned int>::obj_map_entry, obj_hash<obj_map<expr, unsigned int>::key_data>, default_eq<obj_map<expr, unsigned int>::key_data>>::iterator", ptr %7, i32 0, i32 0
  %9 = load ptr, ptr %5, align 8, !tbaa !81
  store ptr %9, ptr %8, align 8, !tbaa !67
  %10 = getelementptr inbounds nuw %"class.core_hashtable<obj_map<expr, unsigned int>::obj_map_entry, obj_hash<obj_map<expr, unsigned int>::key_data>, default_eq<obj_map<expr, unsigned int>::key_data>>::iterator", ptr %7, i32 0, i32 1
  %11 = load ptr, ptr %6, align 8, !tbaa !81
  store ptr %11, ptr %10, align 8, !tbaa !108
  call void @_ZN14core_hashtableIN7obj_mapI4exprjE13obj_map_entryE8obj_hashINS2_8key_dataEE10default_eqIS5_EE8iterator12move_to_usedEv(ptr noundef nonnull align 8 dereferenceable(16) %7)
  ret void
}

; Function Attrs: mustprogress nounwind uwtable
define linkonce_odr hidden void @_ZN14core_hashtableIN7obj_mapI4exprjE13obj_map_entryE8obj_hashINS2_8key_dataEE10default_eqIS5_EE8iterator12move_to_usedEv(ptr noundef nonnull align 8 dereferenceable(16) %0) #7 comdat align 2 {
  %2 = alloca ptr, align 8
  store ptr %0, ptr %2, align 8, !tbaa !65
  %3 = load ptr, ptr %2, align 8
  br label %4

4:                                                ; preds = %17, %1
  %5 = getelementptr inbounds nuw %"class.core_hashtable<obj_map<expr, unsigned int>::obj_map_entry, obj_hash<obj_map<expr, unsigned int>::key_data>, default_eq<obj_map<expr, unsigned int>::key_data>>::iterator", ptr %3, i32 0, i32 0
  %6 = load ptr, ptr %5, align 8, !tbaa !67
  %7 = getelementptr inbounds nuw %"class.core_hashtable<obj_map<expr, unsigned int>::obj_map_entry, obj_hash<obj_map<expr, unsigned int>::key_data>, default_eq<obj_map<expr, unsigned int>::key_data>>::iterator", ptr %3, i32 0, i32 1
  %8 = load ptr, ptr %7, align 8, !tbaa !108
  %9 = icmp ne ptr %6, %8
  br i1 %9, label %10, label %15

10:                                               ; preds = %4
  %11 = getelementptr inbounds nuw %"class.core_hashtable<obj_map<expr, unsigned int>::obj_map_entry, obj_hash<obj_map<expr, unsigned int>::key_data>, default_eq<obj_map<expr, unsigned int>::key_data>>::iterator", ptr %3, i32 0, i32 0
  %12 = load ptr, ptr %11, align 8, !tbaa !67
  %13 = call noundef zeroext i1 @_ZNK7obj_mapI4exprjE13obj_map_entry7is_usedEv(ptr noundef nonnull align 8 dereferenceable(16) %12)
  %14 = xor i1 %13, true
  br label %15

15:                                               ; preds = %10, %4
  %16 = phi i1 [ false, %4 ], [ %14, %10 ]
  br i1 %16, label %17, label %21

17:                                               ; preds = %15
  %18 = getelementptr inbounds nuw %"class.core_hashtable<obj_map<expr, unsigned int>::obj_map_entry, obj_hash<obj_map<expr, unsigned int>::key_data>, default_eq<obj_map<expr, unsigned int>::key_data>>::iterator", ptr %3, i32 0, i32 0
  %19 = load ptr, ptr %18, align 8, !tbaa !67
  %20 = getelementptr inbounds nuw %"class.obj_map<expr, unsigned int>::obj_map_entry", ptr %19, i32 1
  store ptr %20, ptr %18, align 8, !tbaa !67
  br label %4, !llvm.loop !109

21:                                               ; preds = %15
  ret void
}

; Function Attrs: mustprogress nounwind uwtable
define linkonce_odr hidden noundef nonnull align 8 dereferenceable(12) ptr @_ZN7obj_mapI4exprjE13obj_map_entry8get_dataEv(ptr noundef nonnull align 8 dereferenceable(16) %0) #7 comdat align 2 {
  %2 = alloca ptr, align 8
  store ptr %0, ptr %2, align 8, !tbaa !81
  %3 = load ptr, ptr %2, align 8
  %4 = getelementptr inbounds nuw %"class.obj_map<expr, unsigned int>::obj_map_entry", ptr %3, i32 0, i32 0
  ret ptr %4
}

; Function Attrs: mustprogress uwtable
define linkonce_odr hidden { ptr, ptr } @_ZNK14core_hashtableIN7obj_mapI4exprjE13obj_map_entryE8obj_hashINS2_8key_dataEE10default_eqIS5_EE3endEv(ptr noundef nonnull align 8 dereferenceable(20) %0) #4 comdat align 2 {
  %2 = alloca %"class.core_hashtable<obj_map<expr, unsigned int>::obj_map_entry, obj_hash<obj_map<expr, unsigned int>::key_data>, default_eq<obj_map<expr, unsigned int>::key_data>>::iterator", align 8
  %3 = alloca ptr, align 8
  store ptr %0, ptr %3, align 8, !tbaa !79
  %4 = load ptr, ptr %3, align 8
  %5 = getelementptr inbounds nuw %class.core_hashtable, ptr %4, i32 0, i32 0
  %6 = load ptr, ptr %5, align 8, !tbaa !89
  %7 = getelementptr inbounds nuw %class.core_hashtable, ptr %4, i32 0, i32 1
  %8 = load i32, ptr %7, align 8, !tbaa !88
  %9 = zext i32 %8 to i64
  %10 = getelementptr inbounds nuw %"class.obj_map<expr, unsigned int>::obj_map_entry", ptr %6, i64 %9
  %11 = getelementptr inbounds nuw %class.core_hashtable, ptr %4, i32 0, i32 0
  %12 = load ptr, ptr %11, align 8, !tbaa !89
  %13 = getelementptr inbounds nuw %class.core_hashtable, ptr %4, i32 0, i32 1
  %14 = load i32, ptr %13, align 8, !tbaa !88
  %15 = zext i32 %14 to i64
  %16 = getelementptr inbounds nuw %"class.obj_map<expr, unsigned int>::obj_map_entry", ptr %12, i64 %15
  call void @_ZN14core_hashtableIN7obj_mapI4exprjE13obj_map_entryE8obj_hashINS2_8key_dataEE10default_eqIS5_EE8iteratorC2EPS3_SB_(ptr noundef nonnull align 8 dereferenceable(16) %2, ptr noundef %10, ptr noundef %16)
  %17 = load { ptr, ptr }, ptr %2, align 8
  ret { ptr, ptr } %17
}

; Function Attrs: mustprogress uwtable
define linkonce_odr hidden { ptr, ptr } @_ZNK14core_hashtableIN7obj_mapI4exprjE13obj_map_entryE8obj_hashINS2_8key_dataEE10default_eqIS5_EE5beginEv(ptr noundef nonnull align 8 dereferenceable(20) %0) #4 comdat align 2 {
  %2 = alloca %"class.core_hashtable<obj_map<expr, unsigned int>::obj_map_entry, obj_hash<obj_map<expr, unsigned int>::key_data>, default_eq<obj_map<expr, unsigned int>::key_data>>::iterator", align 8
  %3 = alloca ptr, align 8
  store ptr %0, ptr %3, align 8, !tbaa !79
  %4 = load ptr, ptr %3, align 8
  %5 = getelementptr inbounds nuw %class.core_hashtable, ptr %4, i32 0, i32 0
  %6 = load ptr, ptr %5, align 8, !tbaa !89
  %7 = getelementptr inbounds nuw %class.core_hashtable, ptr %4, i32 0, i32 0
  %8 = load ptr, ptr %7, align 8, !tbaa !89
  %9 = getelementptr inbounds nuw %class.core_hashtable, ptr %4, i32 0, i32 1
  %10 = load i32, ptr %9, align 8, !tbaa !88
  %11 = zext i32 %10 to i64
  %12 = getelementptr inbounds nuw %"class.obj_map<expr, unsigned int>::obj_map_entry", ptr %8, i64 %11
  call void @_ZN14core_hashtableIN7obj_mapI4exprjE13obj_map_entryE8obj_hashINS2_8key_dataEE10default_eqIS5_EE8iteratorC2EPS3_SB_(ptr noundef nonnull align 8 dereferenceable(16) %2, ptr noundef %6, ptr noundef %12)
  %13 = load { ptr, ptr }, ptr %2, align 8
  ret { ptr, ptr } %13
}

; Function Attrs: mustprogress nounwind uwtable
define linkonce_odr hidden noundef nonnull align 8 dereferenceable(16) ptr @_ZN14core_hashtableIN7obj_mapI4exprjE13obj_map_entryE8obj_hashINS2_8key_dataEE10default_eqIS5_EE8iteratorppEv(ptr noundef nonnull align 8 dereferenceable(16) %0) #7 comdat align 2 {
  %2 = alloca ptr, align 8
  store ptr %0, ptr %2, align 8, !tbaa !65
  %3 = load ptr, ptr %2, align 8
  %4 = getelementptr inbounds nuw %"class.core_hashtable<obj_map<expr, unsigned int>::obj_map_entry, obj_hash<obj_map<expr, unsigned int>::key_data>, default_eq<obj_map<expr, unsigned int>::key_data>>::iterator", ptr %3, i32 0, i32 0
  %5 = load ptr, ptr %4, align 8, !tbaa !67
  %6 = getelementptr inbounds nuw %"class.obj_map<expr, unsigned int>::obj_map_entry", ptr %5, i32 1
  store ptr %6, ptr %4, align 8, !tbaa !67
  call void @_ZN14core_hashtableIN7obj_mapI4exprjE13obj_map_entryE8obj_hashINS2_8key_dataEE10default_eqIS5_EE8iterator12move_to_usedEv(ptr noundef nonnull align 8 dereferenceable(16) %3)
  ret ptr %3
}

; Function Attrs: mustprogress nounwind uwtable
define linkonce_odr hidden noundef i32 @_ZNK3ast13get_ref_countEv(ptr noundef nonnull align 4 dereferenceable(16) %0) #7 comdat align 2 {
  %2 = alloca ptr, align 8
  store ptr %0, ptr %2, align 8, !tbaa !28
  %3 = load ptr, ptr %2, align 8
  %4 = getelementptr inbounds nuw %class.ast, ptr %3, i32 0, i32 2
  %5 = load i32, ptr %4, align 4, !tbaa !30
  ret i32 %5
}

; Function Attrs: mustprogress nounwind uwtable
define linkonce_odr hidden noundef nonnull align 8 dereferenceable(12) ptr @_ZN14core_hashtableIN7obj_mapI4exprjE13obj_map_entryE8obj_hashINS2_8key_dataEE10default_eqIS5_EE8iteratordeEv(ptr noundef nonnull align 8 dereferenceable(16) %0) #7 comdat align 2 {
  %2 = alloca ptr, align 8
  store ptr %0, ptr %2, align 8, !tbaa !65
  %3 = load ptr, ptr %2, align 8
  %4 = getelementptr inbounds nuw %"class.core_hashtable<obj_map<expr, unsigned int>::obj_map_entry, obj_hash<obj_map<expr, unsigned int>::key_data>, default_eq<obj_map<expr, unsigned int>::key_data>>::iterator", ptr %3, i32 0, i32 0
  %5 = load ptr, ptr %4, align 8, !tbaa !67
  %6 = call noundef nonnull align 8 dereferenceable(12) ptr @_ZN7obj_mapI4exprjE13obj_map_entry8get_dataEv(ptr noundef nonnull align 8 dereferenceable(16) %5)
  ret ptr %6
}

; Function Attrs: mustprogress nounwind uwtable
define linkonce_odr hidden noundef zeroext i1 @_ZNK14core_hashtableIN7obj_mapI4exprjE13obj_map_entryE8obj_hashINS2_8key_dataEE10default_eqIS5_EE8iteratorneERKSA_(ptr noundef nonnull align 8 dereferenceable(16) %0, ptr noundef nonnull align 8 dereferenceable(16) %1) #7 comdat align 2 {
  %3 = alloca ptr, align 8
  %4 = alloca ptr, align 8
  store ptr %0, ptr %3, align 8, !tbaa !65
  store ptr %1, ptr %4, align 8, !tbaa !65
  %5 = load ptr, ptr %3, align 8
  %6 = getelementptr inbounds nuw %"class.core_hashtable<obj_map<expr, unsigned int>::obj_map_entry, obj_hash<obj_map<expr, unsigned int>::key_data>, default_eq<obj_map<expr, unsigned int>::key_data>>::iterator", ptr %5, i32 0, i32 0
  %7 = load ptr, ptr %6, align 8, !tbaa !67
  %8 = load ptr, ptr %4, align 8, !tbaa !65
  %9 = getelementptr inbounds nuw %"class.core_hashtable<obj_map<expr, unsigned int>::obj_map_entry, obj_hash<obj_map<expr, unsigned int>::key_data>, default_eq<obj_map<expr, unsigned int>::key_data>>::iterator", ptr %8, i32 0, i32 0
  %10 = load ptr, ptr %9, align 8, !tbaa !67
  %11 = icmp ne ptr %7, %10
  ret i1 %11
}

; Function Attrs: mustprogress uwtable
define linkonce_odr hidden { ptr, ptr } @_ZNK7obj_mapI4exprjE3endEv(ptr noundef nonnull align 8 dereferenceable(24) %0) #4 comdat align 2 {
  %2 = alloca %"class.core_hashtable<obj_map<expr, unsigned int>::obj_map_entry, obj_hash<obj_map<expr, unsigned int>::key_data>, default_eq<obj_map<expr, unsigned int>::key_data>>::iterator", align 8
  %3 = alloca ptr, align 8
  store ptr %0, ptr %3, align 8, !tbaa !32
  %4 = load ptr, ptr %3, align 8
  %5 = getelementptr inbounds nuw %class.obj_map, ptr %4, i32 0, i32 0
  %6 = call { ptr, ptr } @_ZNK14core_hashtableIN7obj_mapI4exprjE13obj_map_entryE8obj_hashINS2_8key_dataEE10default_eqIS5_EE3endEv(ptr noundef nonnull align 8 dereferenceable(20) %5)
  %7 = getelementptr inbounds nuw { ptr, ptr }, ptr %2, i32 0, i32 0
  %8 = extractvalue { ptr, ptr } %6, 0
  store ptr %8, ptr %7, align 8
  %9 = getelementptr inbounds nuw { ptr, ptr }, ptr %2, i32 0, i32 1
  %10 = extractvalue { ptr, ptr } %6, 1
  store ptr %10, ptr %9, align 8
  %11 = load { ptr, ptr }, ptr %2, align 8
  ret { ptr, ptr } %11
}

; Function Attrs: mustprogress uwtable
define linkonce_odr hidden { ptr, ptr } @_ZNK7obj_mapI4exprjE5beginEv(ptr noundef nonnull align 8 dereferenceable(24) %0) #4 comdat align 2 {
  %2 = alloca %"class.core_hashtable<obj_map<expr, unsigned int>::obj_map_entry, obj_hash<obj_map<expr, unsigned int>::key_data>, default_eq<obj_map<expr, unsigned int>::key_data>>::iterator", align 8
  %3 = alloca ptr, align 8
  store ptr %0, ptr %3, align 8, !tbaa !32
  %4 = load ptr, ptr %3, align 8
  %5 = getelementptr inbounds nuw %class.obj_map, ptr %4, i32 0, i32 0
  %6 = call { ptr, ptr } @_ZNK14core_hashtableIN7obj_mapI4exprjE13obj_map_entryE8obj_hashINS2_8key_dataEE10default_eqIS5_EE5beginEv(ptr noundef nonnull align 8 dereferenceable(20) %5)
  %7 = getelementptr inbounds nuw { ptr, ptr }, ptr %2, i32 0, i32 0
  %8 = extractvalue { ptr, ptr } %6, 0
  store ptr %8, ptr %7, align 8
  %9 = getelementptr inbounds nuw { ptr, ptr }, ptr %2, i32 0, i32 1
  %10 = extractvalue { ptr, ptr } %6, 1
  store ptr %10, ptr %9, align 8
  %11 = load { ptr, ptr }, ptr %2, align 8
  ret { ptr, ptr } %11
}

; Function Attrs: mustprogress uwtable
define hidden void @_ZN10num_occurs8validateEv(ptr noundef nonnull align 8 dereferenceable(40) %0) #4 align 2 {
  %2 = alloca ptr, align 8
  %3 = alloca ptr, align 8
  %4 = alloca %"class.core_hashtable<obj_map<expr, unsigned int>::obj_map_entry, obj_hash<obj_map<expr, unsigned int>::key_data>, default_eq<obj_map<expr, unsigned int>::key_data>>::iterator", align 8
  %5 = alloca %"class.core_hashtable<obj_map<expr, unsigned int>::obj_map_entry, obj_hash<obj_map<expr, unsigned int>::key_data>, default_eq<obj_map<expr, unsigned int>::key_data>>::iterator", align 8
  %6 = alloca ptr, align 8
  store ptr %0, ptr %2, align 8, !tbaa !3
  %7 = load ptr, ptr %2, align 8
  call void @llvm.lifetime.start.p0(i64 8, ptr %3) #3
  %8 = getelementptr inbounds nuw %class.num_occurs, ptr %7, i32 0, i32 4
  store ptr %8, ptr %3, align 8, !tbaa !32
  call void @llvm.lifetime.start.p0(i64 16, ptr %4) #3
  %9 = load ptr, ptr %3, align 8, !tbaa !32
  %10 = call { ptr, ptr } @_ZNK7obj_mapI4exprjE5beginEv(ptr noundef nonnull align 8 dereferenceable(24) %9)
  %11 = getelementptr inbounds nuw { ptr, ptr }, ptr %4, i32 0, i32 0
  %12 = extractvalue { ptr, ptr } %10, 0
  store ptr %12, ptr %11, align 8
  %13 = getelementptr inbounds nuw { ptr, ptr }, ptr %4, i32 0, i32 1
  %14 = extractvalue { ptr, ptr } %10, 1
  store ptr %14, ptr %13, align 8
  call void @llvm.lifetime.start.p0(i64 16, ptr %5) #3
  %15 = load ptr, ptr %3, align 8, !tbaa !32
  %16 = call { ptr, ptr } @_ZNK7obj_mapI4exprjE3endEv(ptr noundef nonnull align 8 dereferenceable(24) %15)
  %17 = getelementptr inbounds nuw { ptr, ptr }, ptr %5, i32 0, i32 0
  %18 = extractvalue { ptr, ptr } %16, 0
  store ptr %18, ptr %17, align 8
  %19 = getelementptr inbounds nuw { ptr, ptr }, ptr %5, i32 0, i32 1
  %20 = extractvalue { ptr, ptr } %16, 1
  store ptr %20, ptr %19, align 8
  br label %21

21:                                               ; preds = %33, %1
  %22 = call noundef zeroext i1 @_ZNK14core_hashtableIN7obj_mapI4exprjE13obj_map_entryE8obj_hashINS2_8key_dataEE10default_eqIS5_EE8iteratorneERKSA_(ptr noundef nonnull align 8 dereferenceable(16) %4, ptr noundef nonnull align 8 dereferenceable(16) %5)
  br i1 %22, label %24, label %23

23:                                               ; preds = %21
  call void @llvm.lifetime.end.p0(i64 16, ptr %5) #3
  call void @llvm.lifetime.end.p0(i64 16, ptr %4) #3
  call void @llvm.lifetime.end.p0(i64 8, ptr %3) #3
  br label %35

24:                                               ; preds = %21
  call void @llvm.lifetime.start.p0(i64 8, ptr %6) #3
  %25 = call noundef nonnull align 8 dereferenceable(12) ptr @_ZN14core_hashtableIN7obj_mapI4exprjE13obj_map_entryE8obj_hashINS2_8key_dataEE10default_eqIS5_EE8iteratordeEv(ptr noundef nonnull align 8 dereferenceable(16) %4)
  store ptr %25, ptr %6, align 8, !tbaa !61
  %26 = load ptr, ptr %6, align 8, !tbaa !61
  %27 = getelementptr inbounds nuw %"struct.obj_map<expr, unsigned int>::key_data", ptr %26, i32 0, i32 0
  %28 = load ptr, ptr %27, align 8, !tbaa !63
  %29 = call noundef i32 @_ZNK3ast13get_ref_countEv(ptr noundef nonnull align 4 dereferenceable(16) %28)
  %30 = icmp ult i32 0, %29
  br i1 %30, label %32, label %31

31:                                               ; preds = %24
  call void @_Z26notify_assertion_violationPKciS0_(ptr noundef @.str, i32 noundef 64, ptr noundef @.str.1)
  call void @_Z18invoke_exit_actionj(i32 noundef 114)
  br label %32

32:                                               ; preds = %31, %24
  call void @llvm.lifetime.end.p0(i64 8, ptr %6) #3
  br label %33

33:                                               ; preds = %32
  %34 = call noundef nonnull align 8 dereferenceable(16) ptr @_ZN14core_hashtableIN7obj_mapI4exprjE13obj_map_entryE8obj_hashINS2_8key_dataEE10default_eqIS5_EE8iteratorppEv(ptr noundef nonnull align 8 dereferenceable(16) %4)
  br label %21

35:                                               ; preds = %23
  ret void
}