; Function Attrs: mustprogress uwtable
define hidden void @_ZN10num_occurs8validateEv(ptr noundef nonnull readonly align 8 captures(none) dereferenceable(40) %0) local_unnamed_addr #3 align 2 {
  %2 = getelementptr inbounds nuw i8, ptr %0, i64 16
  %3 = load ptr, ptr %2, align 8, !tbaa !45
  %4 = getelementptr inbounds nuw i8, ptr %0, i64 24
  %5 = load i32, ptr %4, align 8, !tbaa !44
  %6 = zext i32 %5 to i64
  %7 = getelementptr inbounds nuw %"class.obj_map<expr, unsigned int>::obj_map_entry", ptr %3, i64 %6
  %.not1.i.i.i.i = icmp eq i32 %5, 0
  br i1 %.not1.i.i.i.i, label %_ZNK7obj_mapI4exprjE5beginEv.exit, label %.lr.ph.i.i.i.i

.lr.ph.i.i.i.i:                                   ; preds = %1, %9
  %.sroa.0.0.i.i = phi ptr [ %10, %9 ], [ %3, %1 ]
  %8 = load ptr, ptr %.sroa.0.0.i.i, align 8, !tbaa !50
  %switch.i.i.i.i = icmp ult ptr %8, inttoptr (i64 2 to ptr)
  br i1 %switch.i.i.i.i, label %9, label %_ZNK7obj_mapI4exprjE5beginEv.exit

9:                                                ; preds = %.lr.ph.i.i.i.i
  %10 = getelementptr inbounds nuw i8, ptr %.sroa.0.0.i.i, i64 16
  %.not.i.i.i.i = icmp eq ptr %10, %7
  br i1 %.not.i.i.i.i, label %._crit_edge, label %.lr.ph.i.i.i.i, !llvm.loop !67

_ZNK7obj_mapI4exprjE5beginEv.exit:                ; preds = %.lr.ph.i.i.i.i, %1
  %.sroa.0.1.i.i = phi ptr [ %3, %1 ], [ %.sroa.0.0.i.i, %.lr.ph.i.i.i.i ]
  %.not910 = icmp eq ptr %.sroa.0.1.i.i, %7
  br i1 %.not910, label %._crit_edge, label %.lr.ph

._crit_edge:                                      ; preds = %9, %_ZN14core_hashtableIN7obj_mapI4exprjE13obj_map_entryE8obj_hashINS2_8key_dataEE10default_eqIS5_EE8iteratorppEv.exit, %_ZNK7obj_mapI4exprjE5beginEv.exit
  ret void

.lr.ph:                                           ; preds = %_ZNK7obj_mapI4exprjE5beginEv.exit, %_ZN14core_hashtableIN7obj_mapI4exprjE13obj_map_entryE8obj_hashINS2_8key_dataEE10default_eqIS5_EE8iteratorppEv.exit
  %.sroa.06.011 = phi ptr [ %.sroa.06.2, %_ZN14core_hashtableIN7obj_mapI4exprjE13obj_map_entryE8obj_hashINS2_8key_dataEE10default_eqIS5_EE8iteratorppEv.exit ], [ %.sroa.0.1.i.i, %_ZNK7obj_mapI4exprjE5beginEv.exit ]
  %11 = load ptr, ptr %.sroa.06.011, align 8, !tbaa !46
  %12 = getelementptr inbounds nuw i8, ptr %11, i64 8
  %13 = load i32, ptr %12, align 4, !tbaa !21
  %.not = icmp eq i32 %13, 0
  br i1 %.not, label %14, label %15

14:                                               ; preds = %.lr.ph
  tail call void @_Z26notify_assertion_violationPKciS0_(ptr noundef nonnull @.str, i32 noundef 64, ptr noundef nonnull @.str.1)
  tail call void @_Z18invoke_exit_actionj(i32 noundef 114)
  br label %15

15:                                               ; preds = %14, %.lr.ph
  %16 = getelementptr inbounds nuw i8, ptr %.sroa.06.011, i64 16
  %.not1.i.i = icmp eq ptr %16, %7
  br i1 %.not1.i.i, label %_ZN14core_hashtableIN7obj_mapI4exprjE13obj_map_entryE8obj_hashINS2_8key_dataEE10default_eqIS5_EE8iteratorppEv.exit, label %.lr.ph.i.i

.lr.ph.i.i:                                       ; preds = %15, %18
  %.sroa.06.1 = phi ptr [ %19, %18 ], [ %16, %15 ]
  %17 = load ptr, ptr %.sroa.06.1, align 8, !tbaa !50
  %switch.i.i = icmp ult ptr %17, inttoptr (i64 2 to ptr)
  br i1 %switch.i.i, label %18, label %_ZN14core_hashtableIN7obj_mapI4exprjE13obj_map_entryE8obj_hashINS2_8key_dataEE10default_eqIS5_EE8iteratorppEv.exit

18:                                               ; preds = %.lr.ph.i.i
  %19 = getelementptr inbounds nuw i8, ptr %.sroa.06.1, i64 16
  %.not.i.i = icmp eq ptr %19, %7
  br i1 %.not.i.i, label %_ZN14core_hashtableIN7obj_mapI4exprjE13obj_map_entryE8obj_hashINS2_8key_dataEE10default_eqIS5_EE8iteratorppEv.exit, label %.lr.ph.i.i, !llvm.loop !67

_ZN14core_hashtableIN7obj_mapI4exprjE13obj_map_entryE8obj_hashINS2_8key_dataEE10default_eqIS5_EE8iteratorppEv.exit: ; preds = %.lr.ph.i.i, %18, %15
  %.sroa.06.2 = phi ptr [ %16, %15 ], [ %.sroa.06.1, %.lr.ph.i.i ], [ %19, %18 ]
  %.not9 = icmp eq ptr %.sroa.06.2, %7
  br i1 %.not9, label %._crit_edge, label %.lr.ph
}